; ModuleID = '22/756.c'
source_filename = "22/756.c"
target datalayout = "e-m:e-p270:32:32-p271:32:32-p272:64:64-i64:64-f80:128-n8:16:32:64-S128"
target triple = "x86_64-pc-linux-gnu"

@.str = private unnamed_addr constant [3 x i8] c"%d\00", align 1
@.str.1 = private unnamed_addr constant [3 x i8] c"No\00", align 1

; Function Attrs: noinline nounwind uwtable
define dso_local i32 @main() #0 {
  %1 = alloca i32, align 4
  %2 = alloca i32, align 4
  %3 = alloca i32, align 4
  %4 = alloca i32, align 4
  %5 = alloca i32, align 4
  %6 = alloca i32, align 4
  %7 = alloca [300 x i32], align 16
  %8 = alloca i32, align 4
  %9 = alloca i8, align 1
  store i32 0, i32* %1, align 4
  store i32 0, i32* %3, align 4
  store i32 0, i32* %8, align 4
  store i32 0, i32* %5, align 4
  br label %10

10:                                               ; preds = %25, %0
  %11 = load i32, i32* %5, align 4
  %12 = icmp slt i32 %11, 300
  br i1 %12, label %13, label %28

13:                                               ; preds = %10
  %14 = load i32, i32* %5, align 4
  %15 = sext i32 %14 to i64
  %16 = getelementptr inbounds [300 x i32], [300 x i32]* %7, i64 0, i64 %15
  %17 = call i32 (i8*, ...) @__isoc99_scanf(i8* getelementptr inbounds ([3 x i8], [3 x i8]* @.str, i64 0, i64 0), i32* %16)
  %18 = call i32 @getchar()
  %19 = trunc i32 %18 to i8
  store i8 %19, i8* %9, align 1
  %20 = load i8, i8* %9, align 1
  %21 = sext i8 %20 to i32
  %22 = icmp eq i32 %21, 10
  br i1 %22, label %23, label %24

23:                                               ; preds = %13
  br label %28

24:                                               ; preds = %13
  br label %25

25:                                               ; preds = %24
  %26 = load i32, i32* %5, align 4
  %27 = add nsw i32 %26, 1
  store i32 %27, i32* %5, align 4
  br label %10

28:                                               ; preds = %23, %10
  %29 = load i32, i32* %5, align 4
  %30 = icmp eq i32 %29, 0
  br i1 %30, label %31, label %33

31:                                               ; preds = %28
  %32 = call i32 (i8*, ...) @printf(i8* getelementptr inbounds ([3 x i8], [3 x i8]* @.str.1, i64 0, i64 0))
  br label %145

33:                                               ; preds = %28
  store i32 0, i32* %6, align 4
  br label %34

34:                                               ; preds = %53, %33
  %35 = load i32, i32* %6, align 4
  %36 = load i32, i32* %5, align 4
  %37 = icmp slt i32 %35, %36
  br i1 %37, label %38, label %56

38:                                               ; preds = %34
  %39 = load i32, i32* %6, align 4
  %40 = sext i32 %39 to i64
  %41 = getelementptr inbounds [300 x i32], [300 x i32]* %7, i64 0, i64 %40
  %42 = load i32, i32* %41, align 4
  %43 = load i32, i32* %6, align 4
  %44 = add nsw i32 %43, 1
  %45 = sext i32 %44 to i64
  %46 = getelementptr inbounds [300 x i32], [300 x i32]* %7, i64 0, i64 %45
  %47 = load i32, i32* %46, align 4
  %48 = icmp eq i32 %42, %47
  br i1 %48, label %49, label %52

49:                                               ; preds = %38
  %50 = load i32, i32* %8, align 4
  %51 = add nsw i32 %50, 1
  store i32 %51, i32* %8, align 4
  br label %52

52:                                               ; preds = %49, %38
  br label %53

53:                                               ; preds = %52
  %54 = load i32, i32* %6, align 4
  %55 = add nsw i32 %54, 1
  store i32 %55, i32* %6, align 4
  br label %34

56:                                               ; preds = %34
  %57 = load i32, i32* %8, align 4
  %58 = load i32, i32* %5, align 4
  %59 = icmp eq i32 %57, %58
  br i1 %59, label %60, label %62

60:                                               ; preds = %56
  %61 = call i32 (i8*, ...) @printf(i8* getelementptr inbounds ([3 x i8], [3 x i8]* @.str.1, i64 0, i64 0))
  br label %144

62:                                               ; preds = %56
  store i32 1, i32* %6, align 4
  br label %63

63:                                               ; preds = %108, %62
  %64 = load i32, i32* %6, align 4
  %65 = load i32, i32* %5, align 4
  %66 = icmp sle i32 %64, %65
  br i1 %66, label %67, label %111

67:                                               ; preds = %63
  store i32 0, i32* %2, align 4
  br label %68

68:                                               ; preds = %104, %67
  %69 = load i32, i32* %2, align 4
  %70 = load i32, i32* %5, align 4
  %71 = load i32, i32* %6, align 4
  %72 = sub nsw i32 %70, %71
  %73 = icmp sle i32 %69, %72
  br i1 %73, label %74, label %107

74:                                               ; preds = %68
  %75 = load i32, i32* %2, align 4
  %76 = sext i32 %75 to i64
  %77 = getelementptr inbounds [300 x i32], [300 x i32]* %7, i64 0, i64 %76
  %78 = load i32, i32* %77, align 4
  %79 = load i32, i32* %2, align 4
  %80 = add nsw i32 %79, 1
  %81 = sext i32 %80 to i64
  %82 = getelementptr inbounds [300 x i32], [300 x i32]* %7, i64 0, i64 %81
  %83 = load i32, i32* %82, align 4
  %84 = icmp slt i32 %78, %83
  br i1 %84, label %85, label %103

85:                                               ; preds = %74
  %86 = load i32, i32* %2, align 4
  %87 = sext i32 %86 to i64
  %88 = getelementptr inbounds [300 x i32], [300 x i32]* %7, i64 0, i64 %87
  %89 = load i32, i32* %88, align 4
  store i32 %89, i32* %4, align 4
  %90 = load i32, i32* %2, align 4
  %91 = add nsw i32 %90, 1
  %92 = sext i32 %91 to i64
  %93 = getelementptr inbounds [300 x i32], [300 x i32]* %7, i64 0, i64 %92
  %94 = load i32, i32* %93, align 4
  %95 = load i32, i32* %2, align 4
  %96 = sext i32 %95 to i64
  %97 = getelementptr inbounds [300 x i32], [300 x i32]* %7, i64 0, i64 %96
  store i32 %94, i32* %97, align 4
  %98 = load i32, i32* %4, align 4
  %99 = load i32, i32* %2, align 4
  %100 = add nsw i32 %99, 1
  %101 = sext i32 %100 to i64
  %102 = getelementptr inbounds [300 x i32], [300 x i32]* %7, i64 0, i64 %101
  store i32 %98, i32* %102, align 4
  br label %103

103:                                              ; preds = %85, %74
  br label %104

104:                                              ; preds = %103
  %105 = load i32, i32* %2, align 4
  %106 = add nsw i32 %105, 1
  store i32 %106, i32* %2, align 4
  br label %68

107:                                              ; preds = %68
  br label %108

108:                                              ; preds = %107
  %109 = load i32, i32* %6, align 4
  %110 = add nsw i32 %109, 1
  store i32 %110, i32* %6, align 4
  br label %63

111:                                              ; preds = %63
  store i32 0, i32* %6, align 4
  br label %112

112:                                              ; preds = %135, %111
  %113 = load i32, i32* %6, align 4
  %114 = load i32, i32* %5, align 4
  %115 = icmp sle i32 %113, %114
  br i1 %115, label %116, label %138

116:                                              ; preds = %112
  %117 = load i32, i32* %6, align 4
  %118 = sext i32 %117 to i64
  %119 = getelementptr inbounds [300 x i32], [300 x i32]* %7, i64 0, i64 %118
  %120 = load i32, i32* %119, align 4
  %121 = load i32, i32* %6, align 4
  %122 = add nsw i32 %121, 1
  %123 = sext i32 %122 to i64
  %124 = getelementptr inbounds [300 x i32], [300 x i32]* %7, i64 0, i64 %123
  %125 = load i32, i32* %124, align 4
  %126 = icmp sgt i32 %120, %125
  br i1 %126, label %127, label %134

127:                                              ; preds = %116
  %128 = load i32, i32* %6, align 4
  %129 = add nsw i32 %128, 1
  %130 = sext i32 %129 to i64
  %131 = getelementptr inbounds [300 x i32], [300 x i32]* %7, i64 0, i64 %130
  %132 = load i32, i32* %131, align 4
  %133 = call i32 (i8*, ...) @printf(i8* getelementptr inbounds ([3 x i8], [3 x i8]* @.str, i64 0, i64 0), i32 %132)
  store i32 1, i32* %3, align 4
  br label %138

134:                                              ; preds = %116
  br label %135

135:                                              ; preds = %134
  %136 = load i32, i32* %6, align 4
  %137 = add nsw i32 %136, 1
  store i32 %137, i32* %6, align 4
  br label %112

138:                                              ; preds = %127, %112
  %139 = load i32, i32* %3, align 4
  %140 = icmp eq i32 %139, 0
  br i1 %140, label %141, label %143

141:                                              ; preds = %138
  %142 = call i32 (i8*, ...) @printf(i8* getelementptr inbounds ([3 x i8], [3 x i8]* @.str.1, i64 0, i64 0))
  br label %143

143:                                              ; preds = %141, %138
  br label %144

144:                                              ; preds = %143, %60
  br label %145

145:                                              ; preds = %144, %31
  %146 = load i32, i32* %1, align 4
  ret i32 %146
}

declare dso_local i32 @__isoc99_scanf(i8*, ...) #1

declare dso_local i32 @getchar() #1

declare dso_local i32 @printf(i8*, ...) #1


!llvm.module.flags = !{!0}
!llvm.ident = !{!1}

!0 = !{i32 1, !"wchar_size", i32 4}
!1 = !{!"clang version 10.0.0-4ubuntu1 "}
